(dp1
S'ip_network'
p2
ccopy_reg
_reconstructor
p3
(cnetaddr.ip
IPNetwork
p4
c__builtin__
object
p5
NtRp6
(I3232237568
I24
I4
tbsS'wan_port'
p7
I1
sS'default_gateway'
p8
g3
(cnetaddr.ip
IPAddress
p9
g5
NtRp10
(I2356299774
I4
tbsS'dns_addr'
p11
g3
(g9
g5
NtRp12
(I134744072
I4
tbsS'broadcast_addr'
p13
g3
(g9
g5
NtRp14
(I3232237823
I4
tbsS'MAC_ON_WAN'
p15
S'00:0e:c6:87:a6:fb'
p16
sS'dhcp_hw_addr'
p17
S'08:00:27:b8:0f:8d'
p18
sS'nat_public_ip'
p19
g3
(g9
g5
NtRp20
(I2356299698
I4
tbsS'MAC_ON_LAN'
p21
S'00:0e:c6:87:a6:fa'
p22
sS'dhcp_gw_addr'
p23
g3
(g9
g5
NtRp24
(I3232237569
I4
tbs.